target datalayout = "e-m:e-p270:32:32-p271:32:32-p272:64:64-i64:64-i128:128-f80:128-n8:16:32:64-S128"
target triple = "x86_64-pc-linux-gnu"

%struct._dfilter_loc = type { i64, i64 }
%struct.sttype_t = type { i32, ptr, ptr, ptr, ptr }
%struct.stnode = type { ptr, ptr, ptr, ptr, ptr, %struct._dfilter_loc, i16 }

@type_list = internal global [15 x ptr] zeroinitializer, align 16
@__const.stnode_new_empty.loc = private unnamed_addr constant %struct._dfilter_loc { i64 -1, i64 0 }, align 8

; Function Attrs: nounwind null_pointer_is_valid sspstrong uwtable
define internal ptr @sttype_lookup(i32 noundef %0) #2 {
  %2 = alloca i32, align 4
  %3 = alloca ptr, align 8
  store i32 %0, ptr %2, align 4
  call void @llvm.lifetime.start.p0(i64 8, ptr %3) #9
  br label %4

4:                                                ; preds = %1
  br label %5

5:                                                ; preds = %4
  br label %6

6:                                                ; preds = %5
  %7 = load i32, ptr %2, align 4
  %8 = zext i32 %7 to i64
  %9 = getelementptr [15 x ptr], ptr @type_list, i64 0, i64 %8
  %10 = load ptr, ptr %9, align 8
  store ptr %10, ptr %3, align 8
  br label %11

11:                                               ; preds = %6
  br label %12

12:                                               ; preds = %11
  br label %13

13:                                               ; preds = %12
  %14 = load ptr, ptr %3, align 8
  call void @llvm.lifetime.end.p0(i64 8, ptr %3) #9
  ret ptr %14
}

; Function Attrs: null_pointer_is_valid sspstrong uwtable
define void @stnode_init(ptr noundef %0, i32 noundef %1, ptr noundef %2, ptr noundef %3, i64 %4, i64 %5) #0 {
  %7 = alloca %struct._dfilter_loc, align 8
  %8 = alloca ptr, align 8
  %9 = alloca i32, align 4
  %10 = alloca ptr, align 8
  %11 = alloca ptr, align 8
  %12 = alloca ptr, align 8
  %13 = getelementptr inbounds nuw { i64, i64 }, ptr %7, i32 0, i32 0
  store i64 %4, ptr %13, align 8
  %14 = getelementptr inbounds nuw { i64, i64 }, ptr %7, i32 0, i32 1
  store i64 %5, ptr %14, align 8
  store ptr %0, ptr %8, align 8
  store i32 %1, ptr %9, align 4
  store ptr %2, ptr %10, align 8
  store ptr %3, ptr %11, align 8
  call void @llvm.lifetime.start.p0(i64 8, ptr %12) #9
  br label %15

15:                                               ; preds = %6
  br label %16

16:                                               ; preds = %15
  br label %17

17:                                               ; preds = %16
  br label %18

18:                                               ; preds = %17
  br label %19

19:                                               ; preds = %18
  br label %20

20:                                               ; preds = %19
  %21 = load ptr, ptr %8, align 8
  %22 = getelementptr inbounds nuw %struct.stnode, ptr %21, i32 0, i32 3
  store ptr null, ptr %22, align 8
  %23 = load ptr, ptr %8, align 8
  %24 = getelementptr inbounds nuw %struct.stnode, ptr %23, i32 0, i32 4
  store ptr null, ptr %24, align 8
  %25 = load ptr, ptr %11, align 8
  %26 = load ptr, ptr %8, align 8
  %27 = getelementptr inbounds nuw %struct.stnode, ptr %26, i32 0, i32 2
  store ptr %25, ptr %27, align 8
  %28 = load ptr, ptr %8, align 8
  %29 = getelementptr inbounds nuw %struct.stnode, ptr %28, i32 0, i32 5
  call void @llvm.memcpy.p0.p0.i64(ptr align 8 %29, ptr align 8 %7, i64 16, i1 false)
  %30 = load ptr, ptr %8, align 8
  %31 = getelementptr inbounds nuw %struct.stnode, ptr %30, i32 0, i32 6
  store i16 0, ptr %31, align 8
  %32 = load i32, ptr %9, align 4
  %33 = icmp eq i32 %32, 0
  br i1 %33, label %34, label %39

34:                                               ; preds = %20
  %35 = load ptr, ptr %8, align 8
  %36 = getelementptr inbounds nuw %struct.stnode, ptr %35, i32 0, i32 0
  store ptr null, ptr %36, align 8
  %37 = load ptr, ptr %8, align 8
  %38 = getelementptr inbounds nuw %struct.stnode, ptr %37, i32 0, i32 1
  store ptr null, ptr %38, align 8
  br label %65

39:                                               ; preds = %20
  %40 = load i32, ptr %9, align 4
  %41 = call ptr @sttype_lookup(i32 noundef %40)
  store ptr %41, ptr %12, align 8
  br label %42

42:                                               ; preds = %39
  br label %43

43:                                               ; preds = %42
  br label %44

44:                                               ; preds = %43
  %45 = load ptr, ptr %12, align 8
  %46 = load ptr, ptr %8, align 8
  %47 = getelementptr inbounds nuw %struct.stnode, ptr %46, i32 0, i32 0
  store ptr %45, ptr %47, align 8
  %48 = load ptr, ptr %12, align 8
  %49 = getelementptr inbounds nuw %struct.sttype_t, ptr %48, i32 0, i32 1
  %50 = load ptr, ptr %49, align 8
  %51 = icmp ne ptr %50, null
  br i1 %51, label %52, label %60

52:                                               ; preds = %44
  %53 = load ptr, ptr %12, align 8
  %54 = getelementptr inbounds nuw %struct.sttype_t, ptr %53, i32 0, i32 1
  %55 = load ptr, ptr %54, align 8
  %56 = load ptr, ptr %10, align 8
  %57 = call ptr %55(ptr noundef %56)
  %58 = load ptr, ptr %8, align 8
  %59 = getelementptr inbounds nuw %struct.stnode, ptr %58, i32 0, i32 1
  store ptr %57, ptr %59, align 8
  br label %64

60:                                               ; preds = %44
  %61 = load ptr, ptr %10, align 8
  %62 = load ptr, ptr %8, align 8
  %63 = getelementptr inbounds nuw %struct.stnode, ptr %62, i32 0, i32 1
  store ptr %61, ptr %63, align 8
  br label %64

64:                                               ; preds = %60, %52
  br label %65

65:                                               ; preds = %64, %34
  call void @llvm.lifetime.end.p0(i64 8, ptr %12) #9
  ret void
}

; Function Attrs: null_pointer_is_valid sspstrong uwtable
define ptr @stnode_new(i32 noundef %0, ptr noundef %1, ptr noundef %2, i64 %3, i64 %4) #0 {
  %6 = alloca %struct._dfilter_loc, align 8
  %7 = alloca i32, align 4
  %8 = alloca ptr, align 8
  %9 = alloca ptr, align 8
  %10 = alloca ptr, align 8
  %11 = alloca i64, align 8
  %12 = alloca i64, align 8
  %13 = alloca ptr, align 8
  %14 = alloca ptr, align 8
  %15 = getelementptr inbounds nuw { i64, i64 }, ptr %6, i32 0, i32 0
  store i64 %3, ptr %15, align 8
  %16 = getelementptr inbounds nuw { i64, i64 }, ptr %6, i32 0, i32 1
  store i64 %4, ptr %16, align 8
  store i32 %0, ptr %7, align 4
  store ptr %1, ptr %8, align 8
  store ptr %2, ptr %9, align 8
  call void @llvm.lifetime.start.p0(i64 8, ptr %10) #9
  call void @llvm.lifetime.start.p0(i64 8, ptr %11) #9
  store i64 1, ptr %11, align 8
  call void @llvm.lifetime.start.p0(i64 8, ptr %12) #9
  store i64 64, ptr %12, align 8
  call void @llvm.lifetime.start.p0(i64 8, ptr %13) #9
  %17 = load i64, ptr %12, align 8
  %18 = icmp eq i64 %17, 1
  br i1 %18, label %19, label %22

19:                                               ; preds = %5
  %20 = load i64, ptr %11, align 8
  %21 = call noalias ptr @g_malloc0(i64 noundef %20) #10
  store ptr %21, ptr %13, align 8
  br label %43

22:                                               ; preds = %5
  %23 = load i64, ptr %11, align 8
  %24 = call i1 @llvm.is.constant.i64(i64 %23)
  br i1 %24, label %25, label %38

25:                                               ; preds = %22
  %26 = load i64, ptr %12, align 8
  %27 = icmp eq i64 %26, 0
  br i1 %27, label %33, label %28

28:                                               ; preds = %25
  %29 = load i64, ptr %11, align 8
  %30 = load i64, ptr %12, align 8
  %31 = udiv i64 -1, %30
  %32 = icmp ule i64 %29, %31
  br i1 %32, label %33, label %38

33:                                               ; preds = %28, %25
  %34 = load i64, ptr %11, align 8
  %35 = load i64, ptr %12, align 8
  %36 = mul i64 %34, %35
  %37 = call noalias ptr @g_malloc0(i64 noundef %36) #10
  store ptr %37, ptr %13, align 8
  br label %42

38:                                               ; preds = %28, %22
  %39 = load i64, ptr %11, align 8
  %40 = load i64, ptr %12, align 8
  %41 = call noalias ptr @g_malloc0_n(i64 noundef %39, i64 noundef %40) #11
  store ptr %41, ptr %13, align 8
  br label %42

42:                                               ; preds = %38, %33
  br label %43

43:                                               ; preds = %42, %19
  %44 = load ptr, ptr %13, align 8
  store ptr %44, ptr %14, align 8
  call void @llvm.lifetime.end.p0(i64 8, ptr %13) #9
  call void @llvm.lifetime.end.p0(i64 8, ptr %12) #9
  call void @llvm.lifetime.end.p0(i64 8, ptr %11) #9
  %45 = load ptr, ptr %14, align 8
  store ptr %45, ptr %10, align 8
  %46 = load ptr, ptr %10, align 8
  %47 = load i32, ptr %7, align 4
  %48 = load ptr, ptr %8, align 8
  %49 = load ptr, ptr %9, align 8
  %50 = getelementptr inbounds nuw { i64, i64 }, ptr %6, i32 0, i32 0
  %51 = load i64, ptr %50, align 8
  %52 = getelementptr inbounds nuw { i64, i64 }, ptr %6, i32 0, i32 1
  %53 = load i64, ptr %52, align 8
  call void @stnode_init(ptr noundef %46, i32 noundef %47, ptr noundef %48, ptr noundef %49, i64 %51, i64 %53)
  %54 = load ptr, ptr %10, align 8
  call void @llvm.lifetime.end.p0(i64 8, ptr %10) #9
  ret ptr %54
}

; Function Attrs: null_pointer_is_valid sspstrong uwtable
define ptr @stnode_new_empty(i32 noundef %0) #0 {
  %2 = alloca i32, align 4
  %3 = alloca %struct._dfilter_loc, align 8
  store i32 %0, ptr %2, align 4
  call void @llvm.lifetime.start.p0(i64 16, ptr %3) #9
  call void @llvm.memcpy.p0.p0.i64(ptr align 8 %3, ptr align 8 @__const.stnode_new_empty.loc, i64 16, i1 false)
  %4 = load i32, ptr %2, align 4
  %5 = getelementptr inbounds nuw { i64, i64 }, ptr %3, i32 0, i32 0
  %6 = load i64, ptr %5, align 8
  %7 = getelementptr inbounds nuw { i64, i64 }, ptr %3, i32 0, i32 1
  %8 = load i64, ptr %7, align 8
  %9 = call ptr @stnode_new(i32 noundef %4, ptr noundef null, ptr noundef null, i64 %6, i64 %8)
  call void @llvm.lifetime.end.p0(i64 16, ptr %3) #9
  ret ptr %9
}