; Function Attrs: null_pointer_is_valid sspstrong uwtable
define noundef ptr @stnode_new_empty(i32 noundef %0) local_unnamed_addr #0 {
  %2 = tail call noalias dereferenceable_or_null(64) ptr @g_malloc0(i64 noundef 64) #14
  %3 = getelementptr inbounds nuw i8, ptr %2, i64 16
  %4 = getelementptr inbounds nuw i8, ptr %2, i64 40
  tail call void @llvm.memset.p0.i64(ptr noundef nonnull align 8 dereferenceable(24) %3, i8 0, i64 24, i1 false)
  store i64 -1, ptr %4, align 8
  %.sroa.2.0..sroa_idx.i.i = getelementptr inbounds nuw i8, ptr %2, i64 48
  store i64 0, ptr %.sroa.2.0..sroa_idx.i.i, align 8
  %5 = getelementptr inbounds nuw i8, ptr %2, i64 56
  store i16 0, ptr %5, align 8
  %6 = icmp eq i32 %0, 0
  br i1 %6, label %7, label %8

7:                                                ; preds = %1
  tail call void @llvm.memset.p0.i64(ptr noundef align 8 dereferenceable(16) %2, i8 0, i64 16, i1 false)
  br label %stnode_new.exit

8:                                                ; preds = %1
  %9 = zext i32 %0 to i64
  %10 = getelementptr [15 x ptr], ptr @type_list, i64 0, i64 %9
  %11 = load ptr, ptr %10, align 8
  store ptr %11, ptr %2, align 8
  %12 = getelementptr inbounds nuw i8, ptr %11, i64 8
  %13 = load ptr, ptr %12, align 8
  %.not.i.i = icmp eq ptr %13, null
  br i1 %.not.i.i, label %17, label %14

14:                                               ; preds = %8
  %15 = tail call ptr %13(ptr noundef null)
  %16 = getelementptr inbounds nuw i8, ptr %2, i64 8
  store ptr %15, ptr %16, align 8
  br label %stnode_new.exit

17:                                               ; preds = %8
  %18 = getelementptr inbounds nuw i8, ptr %2, i64 8
  store ptr null, ptr %18, align 8
  br label %stnode_new.exit

stnode_new.exit:                                  ; preds = %7, %14, %17
  ret ptr %2
}